; ModuleID = '24/2048.c'
source_filename = "24/2048.c"
target datalayout = "e-m:e-p270:32:32-p271:32:32-p272:64:64-i64:64-f80:128-n8:16:32:64-S128"
target triple = "x86_64-pc-linux-gnu"

@.str = private unnamed_addr constant [4 x i8] c"%s\0A\00", align 1

; Function Attrs: noinline nounwind uwtable
define dso_local i32 @main() #0 {
  %1 = alloca i32, align 4
  %2 = alloca [5000 x i8], align 16
  %3 = alloca [200 x [50 x i8]], align 16
  %4 = alloca [200 x i32], align 16
  %5 = alloca i32, align 4
  %6 = alloca i32, align 4
  %7 = alloca i32, align 4
  %8 = alloca i32, align 4
  %9 = alloca i32, align 4
  %10 = alloca i32, align 4
  %11 = alloca i32, align 4
  %12 = alloca i32, align 4
  store i32 0, i32* %1, align 4
  %13 = getelementptr inbounds [5000 x i8], [5000 x i8]* %2, i64 0, i64 0
  %14 = call i32 (i8*, ...) bitcast (i32 (...)* @gets to i32 (i8*, ...)*)(i8* %13)
  %15 = getelementptr inbounds [5000 x i8], [5000 x i8]* %2, i64 0, i64 0
  %16 = call i64 @strlen(i8* %15) #3
  %17 = trunc i64 %16 to i32
  store i32 %17, i32* %5, align 4
  store i32 0, i32* %8, align 4
  store i32 0, i32* %6, align 4
  br label %18

18:                                               ; preds = %87, %0
  %19 = load i32, i32* %6, align 4
  %20 = load i32, i32* %5, align 4
  %21 = icmp slt i32 %19, %20
  br i1 %21, label %22, label %90

22:                                               ; preds = %18
  %23 = load i32, i32* %6, align 4
  %24 = sext i32 %23 to i64
  %25 = getelementptr inbounds [5000 x i8], [5000 x i8]* %2, i64 0, i64 %24
  %26 = load i8, i8* %25, align 1
  %27 = sext i8 %26 to i32
  %28 = icmp ne i32 %27, 32
  br i1 %28, label %29, label %86

29:                                               ; preds = %22
  %30 = load i32, i32* %6, align 4
  %31 = sext i32 %30 to i64
  %32 = getelementptr inbounds [5000 x i8], [5000 x i8]* %2, i64 0, i64 %31
  %33 = load i8, i8* %32, align 1
  %34 = sext i8 %33 to i32
  %35 = icmp ne i32 %34, 44
  br i1 %35, label %36, label %86

36:                                               ; preds = %29
  %37 = load i32, i32* %6, align 4
  store i32 %37, i32* %7, align 4
  br label %38

38:                                               ; preds = %71, %36
  %39 = load i32, i32* %7, align 4
  %40 = sext i32 %39 to i64
  %41 = getelementptr inbounds [5000 x i8], [5000 x i8]* %2, i64 0, i64 %40
  %42 = load i8, i8* %41, align 1
  %43 = sext i8 %42 to i32
  %44 = icmp ne i32 %43, 32
  br i1 %44, label %45, label %56

45:                                               ; preds = %38
  %46 = load i32, i32* %6, align 4
  %47 = sext i32 %46 to i64
  %48 = getelementptr inbounds [5000 x i8], [5000 x i8]* %2, i64 0, i64 %47
  %49 = load i8, i8* %48, align 1
  %50 = sext i8 %49 to i32
  %51 = icmp ne i32 %50, 44
  br i1 %51, label %52, label %56

52:                                               ; preds = %45
  %53 = load i32, i32* %7, align 4
  %54 = load i32, i32* %5, align 4
  %55 = icmp slt i32 %53, %54
  br label %56

56:                                               ; preds = %52, %45, %38
  %57 = phi i1 [ false, %45 ], [ false, %38 ], [ %55, %52 ]
  br i1 %57, label %58, label %74

58:                                               ; preds = %56
  %59 = load i32, i32* %7, align 4
  %60 = sext i32 %59 to i64
  %61 = getelementptr inbounds [5000 x i8], [5000 x i8]* %2, i64 0, i64 %60
  %62 = load i8, i8* %61, align 1
  %63 = load i32, i32* %8, align 4
  %64 = sext i32 %63 to i64
  %65 = getelementptr inbounds [200 x [50 x i8]], [200 x [50 x i8]]* %3, i64 0, i64 %64
  %66 = load i32, i32* %7, align 4
  %67 = load i32, i32* %6, align 4
  %68 = sub nsw i32 %66, %67
  %69 = sext i32 %68 to i64
  %70 = getelementptr inbounds [50 x i8], [50 x i8]* %65, i64 0, i64 %69
  store i8 %62, i8* %70, align 1
  br label %71

71:                                               ; preds = %58
  %72 = load i32, i32* %7, align 4
  %73 = add nsw i32 %72, 1
  store i32 %73, i32* %7, align 4
  br label %38

74:                                               ; preds = %56
  %75 = load i32, i32* %8, align 4
  %76 = sext i32 %75 to i64
  %77 = getelementptr inbounds [200 x [50 x i8]], [200 x [50 x i8]]* %3, i64 0, i64 %76
  %78 = load i32, i32* %7, align 4
  %79 = load i32, i32* %6, align 4
  %80 = sub nsw i32 %78, %79
  %81 = sext i32 %80 to i64
  %82 = getelementptr inbounds [50 x i8], [50 x i8]* %77, i64 0, i64 %81
  store i8 0, i8* %82, align 1
  %83 = load i32, i32* %8, align 4
  %84 = add nsw i32 %83, 1
  store i32 %84, i32* %8, align 4
  %85 = load i32, i32* %7, align 4
  store i32 %85, i32* %6, align 4
  br label %86

86:                                               ; preds = %74, %29, %22
  br label %87

87:                                               ; preds = %86
  %88 = load i32, i32* %6, align 4
  %89 = add nsw i32 %88, 1
  store i32 %89, i32* %6, align 4
  br label %18

90:                                               ; preds = %18
  store i32 0, i32* %6, align 4
  br label %91

91:                                               ; preds = %105, %90
  %92 = load i32, i32* %6, align 4
  %93 = load i32, i32* %8, align 4
  %94 = icmp slt i32 %92, %93
  br i1 %94, label %95, label %108

95:                                               ; preds = %91
  %96 = load i32, i32* %6, align 4
  %97 = sext i32 %96 to i64
  %98 = getelementptr inbounds [200 x [50 x i8]], [200 x [50 x i8]]* %3, i64 0, i64 %97
  %99 = getelementptr inbounds [50 x i8], [50 x i8]* %98, i64 0, i64 0
  %100 = call i64 @strlen(i8* %99) #3
  %101 = trunc i64 %100 to i32
  %102 = load i32, i32* %6, align 4
  %103 = sext i32 %102 to i64
  %104 = getelementptr inbounds [200 x i32], [200 x i32]* %4, i64 0, i64 %103
  store i32 %101, i32* %104, align 4
  br label %105

105:                                              ; preds = %95
  %106 = load i32, i32* %6, align 4
  %107 = add nsw i32 %106, 1
  store i32 %107, i32* %6, align 4
  br label %91

108:                                              ; preds = %91
  %109 = getelementptr inbounds [200 x i32], [200 x i32]* %4, i64 0, i64 0
  %110 = load i32, i32* %109, align 16
  store i32 %110, i32* %9, align 4
  store i32 0, i32* %10, align 4
  store i32 1, i32* %6, align 4
  br label %111

111:                                              ; preds = %129, %108
  %112 = load i32, i32* %6, align 4
  %113 = load i32, i32* %8, align 4
  %114 = icmp slt i32 %112, %113
  br i1 %114, label %115, label %132

115:                                              ; preds = %111
  %116 = load i32, i32* %6, align 4
  %117 = sext i32 %116 to i64
  %118 = getelementptr inbounds [200 x i32], [200 x i32]* %4, i64 0, i64 %117
  %119 = load i32, i32* %118, align 4
  %120 = load i32, i32* %9, align 4
  %121 = icmp slt i32 %119, %120
  br i1 %121, label %122, label %128

122:                                              ; preds = %115
  %123 = load i32, i32* %6, align 4
  %124 = sext i32 %123 to i64
  %125 = getelementptr inbounds [200 x i32], [200 x i32]* %4, i64 0, i64 %124
  %126 = load i32, i32* %125, align 4
  store i32 %126, i32* %9, align 4
  %127 = load i32, i32* %6, align 4
  store i32 %127, i32* %10, align 4
  br label %128

128:                                              ; preds = %122, %115
  br label %129

129:                                              ; preds = %128
  %130 = load i32, i32* %6, align 4
  %131 = add nsw i32 %130, 1
  store i32 %131, i32* %6, align 4
  br label %111

132:                                              ; preds = %111
  %133 = getelementptr inbounds [200 x i32], [200 x i32]* %4, i64 0, i64 0
  %134 = load i32, i32* %133, align 16
  store i32 %134, i32* %11, align 4
  store i32 0, i32* %12, align 4
  store i32 1, i32* %6, align 4
  br label %135

135:                                              ; preds = %153, %132
  %136 = load i32, i32* %6, align 4
  %137 = load i32, i32* %8, align 4
  %138 = icmp slt i32 %136, %137
  br i1 %138, label %139, label %156

139:                                              ; preds = %135
  %140 = load i32, i32* %6, align 4
  %141 = sext i32 %140 to i64
  %142 = getelementptr inbounds [200 x i32], [200 x i32]* %4, i64 0, i64 %141
  %143 = load i32, i32* %142, align 4
  %144 = load i32, i32* %11, align 4
  %145 = icmp sgt i32 %143, %144
  br i1 %145, label %146, label %152

146:                                              ; preds = %139
  %147 = load i32, i32* %6, align 4
  %148 = sext i32 %147 to i64
  %149 = getelementptr inbounds [200 x i32], [200 x i32]* %4, i64 0, i64 %148
  %150 = load i32, i32* %149, align 4
  store i32 %150, i32* %11, align 4
  %151 = load i32, i32* %6, align 4
  store i32 %151, i32* %12, align 4
  br label %152

152:                                              ; preds = %146, %139
  br label %153

153:                                              ; preds = %152
  %154 = load i32, i32* %6, align 4
  %155 = add nsw i32 %154, 1
  store i32 %155, i32* %6, align 4
  br label %135

156:                                              ; preds = %135
  %157 = load i32, i32* %12, align 4
  %158 = sext i32 %157 to i64
  %159 = getelementptr inbounds [200 x [50 x i8]], [200 x [50 x i8]]* %3, i64 0, i64 %158
  %160 = getelementptr inbounds [50 x i8], [50 x i8]* %159, i64 0, i64 0
  %161 = call i32 (i8*, ...) @printf(i8* getelementptr inbounds ([4 x i8], [4 x i8]* @.str, i64 0, i64 0), i8* %160)
  %162 = load i32, i32* %10, align 4
  %163 = sext i32 %162 to i64
  %164 = getelementptr inbounds [200 x [50 x i8]], [200 x [50 x i8]]* %3, i64 0, i64 %163
  %165 = getelementptr inbounds [50 x i8], [50 x i8]* %164, i64 0, i64 0
  %166 = call i32 (i8*, ...) @printf(i8* getelementptr inbounds ([4 x i8], [4 x i8]* @.str, i64 0, i64 0), i8* %165)
  ret i32 0
}

declare dso_local i32 @gets(...) #1

; Function Attrs: nounwind readonly
declare dso_local i64 @strlen(i8*) #2

declare dso_local i32 @printf(i8*, ...) #1


!llvm.module.flags = !{!0}
!llvm.ident = !{!1}

!0 = !{i32 1, !"wchar_size", i32 4}
!1 = !{!"clang version 10.0.0-4ubuntu1 "}
